; Function Attrs: mustprogress uwtable
define hidden void @_ZNK2pb6solver6negateERKNS0_4ineqE(ptr noalias sret(%"struct.pb::solver::ineq") align 8 %agg.result, ptr nocapture noundef nonnull readnone align 8 dereferenceable(1049) %this, ptr nocapture noundef nonnull readonly align 8 dereferenceable(16) %a) local_unnamed_addr #3 align 2 personality ptr @__gxx_personality_v0 {
entry:
  tail call void @llvm.memset.p0.i64(ptr noundef nonnull align 8 dereferenceable(16) %agg.result, i8 0, i64 16, i1 false)
  %.pre = load ptr, ptr %a, align 8
  br label %for.cond

for.cond:                                         ; preds = %invoke.cont12, %entry
  %0 = phi ptr [ %11, %invoke.cont12 ], [ %.pre, %entry ]
  %indvars.iv = phi i64 [ %indvars.iv.next, %invoke.cont12 ], [ 0, %entry ]
  %sum.0 = phi i64 [ %add, %invoke.cont12 ], [ 0, %entry ]
  %cmp.i.i = icmp eq ptr %0, null
  br i1 %cmp.i.i, label %invoke.cont, label %if.end.i.i

if.end.i.i:                                       ; preds = %for.cond
  %arrayidx.i.i = getelementptr inbounds i8, ptr %0, i64 -4
  %1 = load i32, ptr %arrayidx.i.i, align 4
  br label %invoke.cont

invoke.cont:                                      ; preds = %if.end.i.i, %for.cond
  %retval.0.i.i = phi i32 [ %1, %if.end.i.i ], [ 0, %for.cond ]
  %2 = zext i32 %retval.0.i.i to i64
  %cmp = icmp ult i64 %indvars.iv, %2
  br i1 %cmp, label %invoke.cont3, label %for.end

invoke.cont3:                                     ; preds = %invoke.cont
  %second.i = getelementptr inbounds %"struct.std::pair", ptr %0, i64 %indvars.iv, i32 1
  %retval.sroa.0.0.copyload.i = load i32, ptr %second.i, align 4
  %xor.i = xor i32 %retval.sroa.0.0.copyload.i, 1
  %arrayidx.i.i11 = getelementptr inbounds %"struct.std::pair", ptr %0, i64 %indvars.iv
  %3 = load i32, ptr %arrayidx.i.i11, align 4
  %4 = load ptr, ptr %agg.result, align 8
  %cmp.i.i12 = icmp eq ptr %4, null
  br i1 %cmp.i.i12, label %if.then.i.i, label %lor.lhs.false.i.i

lor.lhs.false.i.i:                                ; preds = %invoke.cont3
  %arrayidx.i.i13 = getelementptr inbounds i8, ptr %4, i64 -4
  %5 = load i32, ptr %arrayidx.i.i13, align 4
  %arrayidx4.i.i = getelementptr inbounds i8, ptr %4, i64 -8
  %6 = load i32, ptr %arrayidx4.i.i, align 4
  %cmp5.i.i = icmp eq i32 %5, %6
  br i1 %cmp5.i.i, label %if.then.i.i, label %invoke.cont12

if.then.i.i:                                      ; preds = %lor.lhs.false.i.i, %invoke.cont3
  invoke void @_ZN6vectorISt4pairIjN3sat7literalEELb0EjE13expand_vectorEv(ptr noundef nonnull align 8 dereferenceable(8) %agg.result)
          to label %.noexc unwind label %lpad

.noexc:                                           ; preds = %if.then.i.i
  %.pre.i.i = load ptr, ptr %agg.result, align 8
  %arrayidx8.phi.trans.insert.i.i = getelementptr inbounds i8, ptr %.pre.i.i, i64 -4
  %.pre1.i.i = load i32, ptr %arrayidx8.phi.trans.insert.i.i, align 4
  br label %invoke.cont12

invoke.cont12:                                    ; preds = %.noexc, %lor.lhs.false.i.i
  %7 = phi i32 [ %.pre1.i.i, %.noexc ], [ %5, %lor.lhs.false.i.i ]
  %8 = phi ptr [ %.pre.i.i, %.noexc ], [ %4, %lor.lhs.false.i.i ]
  %idx.ext.i.i = zext i32 %7 to i64
  %add.ptr.i.i = getelementptr inbounds %"struct.std::pair", ptr %8, i64 %idx.ext.i.i
  %ref.tmp.sroa.2.0.insert.ext.i = zext i32 %xor.i to i64
  %ref.tmp.sroa.2.0.insert.shift.i = shl nuw i64 %ref.tmp.sroa.2.0.insert.ext.i, 32
  %ref.tmp.sroa.0.0.insert.ext.i = zext i32 %3 to i64
  %ref.tmp.sroa.0.0.insert.insert.i = or disjoint i64 %ref.tmp.sroa.2.0.insert.shift.i, %ref.tmp.sroa.0.0.insert.ext.i
  store i64 %ref.tmp.sroa.0.0.insert.insert.i, ptr %add.ptr.i.i, align 4
  %9 = load ptr, ptr %agg.result, align 8
  %arrayidx10.i.i = getelementptr inbounds i8, ptr %9, i64 -4
  %10 = load i32, ptr %arrayidx10.i.i, align 4
  %inc.i.i = add i32 %10, 1
  store i32 %inc.i.i, ptr %arrayidx10.i.i, align 4
  %11 = load ptr, ptr %a, align 8
  %arrayidx.i.i15 = getelementptr inbounds %"struct.std::pair", ptr %11, i64 %indvars.iv
  %12 = load i32, ptr %arrayidx.i.i15, align 4
  %conv = zext i32 %12 to i64
  %add = add i64 %sum.0, %conv
  %indvars.iv.next = add nuw nsw i64 %indvars.iv, 1
  br label %for.cond, !llvm.loop !201

lpad:                                             ; preds = %if.then.i.i
  %13 = landingpad { ptr, i32 }
          cleanup
  tail call void @_ZN2pb6solver4ineqD2Ev(ptr noundef nonnull align 8 dereferenceable(16) %agg.result) #28
  resume { ptr, i32 } %13

for.end:                                          ; preds = %invoke.cont
  %add15 = add i64 %sum.0, 1
  %m_k = getelementptr inbounds i8, ptr %a, i64 8
  %14 = load i64, ptr %m_k, align 8
  %sub = sub i64 %add15, %14
  %m_k16 = getelementptr inbounds i8, ptr %agg.result, i64 8
  store i64 %sub, ptr %m_k16, align 8
  ret void
}